; Function Attrs: mustprogress uwtable
define internal noundef float @_ZZZN16btCollisionWorld25objectQuerySingleInternalEPK13btConvexShapeRK11btTransformS5_PK24btCollisionObjectWrapperRNS_20ConvexResultCallbackEfEN22btCompoundLeafCallback12ProcessChildEiS5_PK16btCollisionShapeEN14LocalInfoAdder15addSingleResultERNS_17LocalConvexResultEb(ptr nocapture noundef nonnull align 8 dereferenceable(36) %this, ptr noundef nonnull align 8 dereferenceable(52) %r, i1 noundef zeroext %b) unnamed_addr #4 align 2 {
entry:
  %shapeInfo = alloca %"struct.btCollisionWorld::LocalShapeInfo", align 4
  store i32 -1, ptr %shapeInfo, align 4
  %m_i = getelementptr inbounds i8, ptr %this, i64 32
  %0 = load i32, ptr %m_i, align 8
  %m_triangleIndex = getelementptr inbounds i8, ptr %shapeInfo, i64 4
  store i32 %0, ptr %m_triangleIndex, align 4
  %m_localShapeInfo = getelementptr inbounds i8, ptr %r, i64 8
  %1 = load ptr, ptr %m_localShapeInfo, align 8
  %cmp = icmp eq ptr %1, null
  br i1 %cmp, label %if.then, label %if.end

if.then:                                          ; preds = %entry
  store ptr %shapeInfo, ptr %m_localShapeInfo, align 8
  br label %if.end

if.end:                                           ; preds = %if.then, %entry
  %m_userCallback = getelementptr inbounds i8, ptr %this, i64 24
  %2 = load ptr, ptr %m_userCallback, align 8
  %vtable = load ptr, ptr %2, align 8
  %vfn = getelementptr inbounds i8, ptr %vtable, i64 24
  %3 = load ptr, ptr %vfn, align 8
  %call = call noundef float %3(ptr noundef nonnull align 8 dereferenceable(20) %2, ptr noundef nonnull align 8 dereferenceable(52) %r, i1 noundef zeroext %b)
  %4 = load ptr, ptr %m_userCallback, align 8
  %m_closestHitFraction = getelementptr inbounds i8, ptr %4, i64 8
  %5 = load float, ptr %m_closestHitFraction, align 8
  %m_closestHitFraction4 = getelementptr inbounds i8, ptr %this, i64 8
  store float %5, ptr %m_closestHitFraction4, align 8
  ret float %call
}